target datalayout = "e-m:e-p270:32:32-p271:32:32-p272:64:64-i64:64-i128:128-f80:128-n8:16:32:64-S128"
target triple = "x86_64-pc-linux-gnu"

%"class.pxrInternal_v0_24__pxrReserved__::pxr_double_conversion::Bignum" = type { i16, i16, [128 x i32] }

; Function Attrs: mustprogress nounwind uwtable
define linkonce_odr void @_ZN32pxrInternal_v0_24__pxrReserved__21pxr_double_conversion6Bignum14EnsureCapacityEi(i32 noundef %0) #0 comdat align 2 {
  %2 = alloca i32, align 4
  store i32 %0, ptr %2, align 4
  %3 = load i32, ptr %2, align 4
  %4 = icmp sgt i32 %3, 128
  br i1 %4, label %5, label %6

5:                                                ; preds = %1
  call void @abort() #4
  unreachable

6:                                                ; preds = %1
  ret void
}

; Function Attrs: mustprogress nounwind uwtable
define noundef nonnull align 4 dereferenceable(4) ptr @_ZN32pxrInternal_v0_24__pxrReserved__21pxr_double_conversion6Bignum8RawBigitEi(ptr noundef nonnull align 4 dereferenceable(516) %0, i32 noundef %1) #0 align 2 {
  %3 = alloca ptr, align 8
  %4 = alloca i32, align 4
  store ptr %0, ptr %3, align 8
  store i32 %1, ptr %4, align 4
  %5 = load ptr, ptr %3, align 8
  %6 = getelementptr inbounds nuw %"class.pxrInternal_v0_24__pxrReserved__::pxr_double_conversion::Bignum", ptr %5, i32 0, i32 2
  %7 = load i32, ptr %4, align 4
  %8 = sext i32 %7 to i64
  %9 = getelementptr inbounds [128 x i32], ptr %6, i64 0, i64 %8
  ret ptr %9
}

; Function Attrs: mustprogress nounwind uwtable
define linkonce_odr void @_ZN32pxrInternal_v0_24__pxrReserved__21pxr_double_conversion6Bignum4ZeroEv(ptr noundef nonnull align 4 dereferenceable(516) %0) #0 comdat align 2 {
  %2 = alloca ptr, align 8
  store ptr %0, ptr %2, align 8
  %3 = load ptr, ptr %2, align 8
  %4 = getelementptr inbounds nuw %"class.pxrInternal_v0_24__pxrReserved__::pxr_double_conversion::Bignum", ptr %3, i32 0, i32 0
  store i16 0, ptr %4, align 4
  %5 = getelementptr inbounds nuw %"class.pxrInternal_v0_24__pxrReserved__::pxr_double_conversion::Bignum", ptr %3, i32 0, i32 1
  store i16 0, ptr %5, align 2
  ret void
}

; Function Attrs: mustprogress uwtable
define void @_ZN32pxrInternal_v0_24__pxrReserved__21pxr_double_conversion6Bignum16MultiplyByUInt32Ej(ptr noundef nonnull align 4 dereferenceable(516) %0, i32 noundef %1) #1 align 2 {
  %3 = alloca ptr, align 8
  %4 = alloca i32, align 4
  %5 = alloca i64, align 8
  %6 = alloca i32, align 4
  %7 = alloca i64, align 8
  store ptr %0, ptr %3, align 8
  store i32 %1, ptr %4, align 4
  %8 = load ptr, ptr %3, align 8
  %9 = load i32, ptr %4, align 4
  %10 = icmp eq i32 %9, 1
  br i1 %10, label %11, label %12

11:                                               ; preds = %2
  br label %70

12:                                               ; preds = %2
  %13 = load i32, ptr %4, align 4
  %14 = icmp eq i32 %13, 0
  br i1 %14, label %15, label %16

15:                                               ; preds = %12
  call void @_ZN32pxrInternal_v0_24__pxrReserved__21pxr_double_conversion6Bignum4ZeroEv(ptr noundef nonnull align 4 dereferenceable(516) %8)
  br label %70

16:                                               ; preds = %12
  %17 = getelementptr inbounds nuw %"class.pxrInternal_v0_24__pxrReserved__::pxr_double_conversion::Bignum", ptr %8, i32 0, i32 0
  %18 = load i16, ptr %17, align 4
  %19 = sext i16 %18 to i32
  %20 = icmp eq i32 %19, 0
  br i1 %20, label %21, label %22

21:                                               ; preds = %16
  br label %70

22:                                               ; preds = %16
  store i64 0, ptr %5, align 8
  store i32 0, ptr %6, align 4
  br label %23

23:                                               ; preds = %46, %22
  %24 = load i32, ptr %6, align 4
  %25 = getelementptr inbounds nuw %"class.pxrInternal_v0_24__pxrReserved__::pxr_double_conversion::Bignum", ptr %8, i32 0, i32 0
  %26 = load i16, ptr %25, align 4
  %27 = sext i16 %26 to i32
  %28 = icmp slt i32 %24, %27
  br i1 %28, label %29, label %49

29:                                               ; preds = %23
  %30 = load i32, ptr %4, align 4
  %31 = zext i32 %30 to i64
  %32 = load i32, ptr %6, align 4
  %33 = call noundef nonnull align 4 dereferenceable(4) ptr @_ZN32pxrInternal_v0_24__pxrReserved__21pxr_double_conversion6Bignum8RawBigitEi(ptr noundef nonnull align 4 dereferenceable(516) %8, i32 noundef %32)
  %34 = load i32, ptr %33, align 4
  %35 = zext i32 %34 to i64
  %36 = mul i64 %31, %35
  %37 = load i64, ptr %5, align 8
  %38 = add i64 %36, %37
  store i64 %38, ptr %7, align 8
  %39 = load i64, ptr %7, align 8
  %40 = and i64 %39, 268435455
  %41 = trunc i64 %40 to i32
  %42 = load i32, ptr %6, align 4
  %43 = call noundef nonnull align 4 dereferenceable(4) ptr @_ZN32pxrInternal_v0_24__pxrReserved__21pxr_double_conversion6Bignum8RawBigitEi(ptr noundef nonnull align 4 dereferenceable(516) %8, i32 noundef %42)
  store i32 %41, ptr %43, align 4
  %44 = load i64, ptr %7, align 8
  %45 = lshr i64 %44, 28
  store i64 %45, ptr %5, align 8
  br label %46

46:                                               ; preds = %29
  %47 = load i32, ptr %6, align 4
  %48 = add nsw i32 %47, 1
  store i32 %48, ptr %6, align 4
  br label %23, !llvm.loop !21

49:                                               ; preds = %23
  br label %50

50:                                               ; preds = %53, %49
  %51 = load i64, ptr %5, align 8
  %52 = icmp ne i64 %51, 0
  br i1 %52, label %53, label %70

53:                                               ; preds = %50
  %54 = getelementptr inbounds nuw %"class.pxrInternal_v0_24__pxrReserved__::pxr_double_conversion::Bignum", ptr %8, i32 0, i32 0
  %55 = load i16, ptr %54, align 4
  %56 = sext i16 %55 to i32
  %57 = add nsw i32 %56, 1
  call void @_ZN32pxrInternal_v0_24__pxrReserved__21pxr_double_conversion6Bignum14EnsureCapacityEi(i32 noundef %57)
  %58 = load i64, ptr %5, align 8
  %59 = and i64 %58, 268435455
  %60 = trunc i64 %59 to i32
  %61 = getelementptr inbounds nuw %"class.pxrInternal_v0_24__pxrReserved__::pxr_double_conversion::Bignum", ptr %8, i32 0, i32 0
  %62 = load i16, ptr %61, align 4
  %63 = sext i16 %62 to i32
  %64 = call noundef nonnull align 4 dereferenceable(4) ptr @_ZN32pxrInternal_v0_24__pxrReserved__21pxr_double_conversion6Bignum8RawBigitEi(ptr noundef nonnull align 4 dereferenceable(516) %8, i32 noundef %63)
  store i32 %60, ptr %64, align 4
  %65 = getelementptr inbounds nuw %"class.pxrInternal_v0_24__pxrReserved__::pxr_double_conversion::Bignum", ptr %8, i32 0, i32 0
  %66 = load i16, ptr %65, align 4
  %67 = add i16 %66, 1
  store i16 %67, ptr %65, align 4
  %68 = load i64, ptr %5, align 8
  %69 = lshr i64 %68, 28
  store i64 %69, ptr %5, align 8
  br label %50, !llvm.loop !22

70:                                               ; preds = %50, %21, %15, %11
  ret void
}