; Function Attrs: mustprogress nofree nounwind uwtable
define void @_ZN32pxrInternal_v0_24__pxrReserved__21pxr_double_conversion6Bignum16MultiplyByUInt32Ej(ptr nocapture noundef nonnull align 4 dereferenceable(516) %0, i32 noundef %1) local_unnamed_addr #4 align 2 {
  switch i32 %1, label %5 [
    i32 1, label %.loopexit
    i32 0, label %3
  ]

3:                                                ; preds = %2
  store i16 0, ptr %0, align 4
  %4 = getelementptr inbounds nuw i8, ptr %0, i64 2
  store i16 0, ptr %4, align 2
  br label %.loopexit

5:                                                ; preds = %2
  %6 = load i16, ptr %0, align 4
  %7 = icmp sgt i16 %6, 0
  br i1 %7, label %.lr.ph, label %.loopexit

.lr.ph:                                           ; preds = %5
  %wide.trip.count = zext nneg i16 %6 to i64
  %8 = zext i32 %1 to i64
  %9 = getelementptr inbounds nuw i8, ptr %0, i64 4
  br label %11

.preheader:                                       ; preds = %11
  %.not18 = icmp ult i64 %16, 268435456
  br i1 %.not18, label %.loopexit, label %.lr.ph20

.lr.ph20:                                         ; preds = %.preheader
  %10 = getelementptr inbounds nuw i8, ptr %0, i64 4
  br label %20

11:                                               ; preds = %.lr.ph, %11
  %indvars.iv = phi i64 [ 0, %.lr.ph ], [ %indvars.iv.next, %11 ]
  %.017 = phi i64 [ 0, %.lr.ph ], [ %19, %11 ]
  %12 = getelementptr inbounds [128 x i32], ptr %9, i64 0, i64 %indvars.iv
  %13 = load i32, ptr %12, align 4
  %14 = zext i32 %13 to i64
  %15 = mul nuw i64 %14, %8
  %16 = add i64 %15, %.017
  %17 = trunc i64 %16 to i32
  %18 = and i32 %17, 268435455
  store i32 %18, ptr %12, align 4
  %19 = lshr i64 %16, 28
  %indvars.iv.next = add nuw nsw i64 %indvars.iv, 1
  %exitcond.not = icmp eq i64 %indvars.iv.next, %wide.trip.count
  br i1 %exitcond.not, label %.preheader, label %11, !llvm.loop !14

20:                                               ; preds = %.lr.ph20, %_ZN32pxrInternal_v0_24__pxrReserved__21pxr_double_conversion6Bignum14EnsureCapacityEi.exit
  %21 = phi i16 [ %6, %.lr.ph20 ], [ %29, %_ZN32pxrInternal_v0_24__pxrReserved__21pxr_double_conversion6Bignum14EnsureCapacityEi.exit ]
  %.119 = phi i64 [ %19, %.lr.ph20 ], [ %30, %_ZN32pxrInternal_v0_24__pxrReserved__21pxr_double_conversion6Bignum14EnsureCapacityEi.exit ]
  %22 = icmp sgt i16 %21, 127
  br i1 %22, label %23, label %_ZN32pxrInternal_v0_24__pxrReserved__21pxr_double_conversion6Bignum14EnsureCapacityEi.exit

23:                                               ; preds = %20
  tail call void @abort() #11
  unreachable

_ZN32pxrInternal_v0_24__pxrReserved__21pxr_double_conversion6Bignum14EnsureCapacityEi.exit: ; preds = %20
  %24 = trunc i64 %.119 to i32
  %25 = and i32 %24, 268435455
  %26 = sext i16 %21 to i64
  %27 = getelementptr inbounds [128 x i32], ptr %10, i64 0, i64 %26
  store i32 %25, ptr %27, align 4
  %28 = load i16, ptr %0, align 4
  %29 = add i16 %28, 1
  store i16 %29, ptr %0, align 4
  %30 = lshr i64 %.119, 28
  %.not = icmp ult i64 %.119, 268435456
  br i1 %.not, label %.loopexit, label %20, !llvm.loop !15

.loopexit:                                        ; preds = %_ZN32pxrInternal_v0_24__pxrReserved__21pxr_double_conversion6Bignum14EnsureCapacityEi.exit, %.preheader, %2, %5, %3
  ret void
}